target datalayout = "e-m:e-p270:32:32-p271:32:32-p272:64:64-i64:64-i128:128-f80:128-n8:16:32:64-S128"
target triple = "x86_64-pc-linux-gnu"

%struct.H5CX_node_t = type { %struct.H5CX_t, ptr }
%struct.H5CX_t = type { i64, ptr, i64, ptr, i64, ptr, i64, ptr, i64, ptr, i64, ptr, i64, i32, i64, i8, ptr, i8, ptr, i8, i32, i8, [3 x double], i8, i64, i8, i32, i8, %struct.H5Z_cb_t, i8, ptr, i8, %struct.H5T_vlen_alloc_info_t, i8, %struct.H5T_conv_cb_t, i8, i32, i8, i8, i8, i32, i8, i8, i32, i8, i8, i32, i8, i32, i8, i64, i8, i8, i8, i8, i8, ptr, i8, ptr, i8, i32, i8, i32, i8, %struct.H5VL_connector_prop_t, i8, ptr, i8 }
%struct.H5Z_cb_t = type { ptr, ptr }
%struct.H5T_vlen_alloc_info_t = type { ptr, ptr, ptr, ptr }
%struct.H5T_conv_cb_t = type { ptr, ptr }
%struct.H5VL_connector_prop_t = type { ptr, ptr }
%struct.H5O_token_t = type { [16 x i8] }

@.str = private unnamed_addr constant [104 x i8] c"generated/home/dtcxzyw/WorkSpace/Projects/compilers/llvm-opt-benchmark/bench/hdf5/hdf5/src/H5VLnative.c\00", align 1
@H5E_VOL_g = external global i64, align 8
@H5E_BADTYPE_g = external global i64, align 8
@.str.3 = private unnamed_addr constant [28 x i8] c"invalid location identifier\00", align 1
@H5E_CANTGET_g = external global i64, align 8
@H5_libinit_g = external global i8, align 1
@H5_libterm_g = external global i8, align 1
@H5E_FUNC_g = external global i64, align 8
@H5E_CANTINIT_g = external global i64, align 8
@.str.6 = private unnamed_addr constant [30 x i8] c"library initialization failed\00", align 1
@H5E_CANTSET_g = external global i64, align 8
@.str.7 = private unnamed_addr constant [22 x i8] c"can't set API context\00", align 1
@H5E_ARGS_g = external global i64, align 8
@H5E_BADVALUE_g = external global i64, align 8
@.str.9 = private unnamed_addr constant [32 x i8] c"can't get underlying VOL object\00", align 1
@__func__.H5VLnative_token_to_addr = private unnamed_addr constant [25 x i8] c"H5VLnative_token_to_addr\00", align 1
@.str.12 = private unnamed_addr constant [27 x i8] c"addr pointer can't be NULL\00", align 1
@H5E_CANTUNSERIALIZE_g = external global i64, align 8
@.str.13 = private unnamed_addr constant [47 x i8] c"couldn't deserialize object token into haddr_t\00", align 1

; Function Attrs: nounwind uwtable
define i32 @H5VLnative_token_to_addr(i64 noundef %0, i64 %1, i64 %2, ptr noundef %3) #0 {
  %5 = alloca %struct.H5O_token_t, align 1
  %6 = alloca i64, align 8
  %7 = alloca ptr, align 8
  %8 = alloca i32, align 4
  %9 = alloca ptr, align 8
  %10 = alloca i32, align 4
  %11 = alloca %struct.H5CX_node_t, align 8
  %12 = alloca i8, align 1
  %13 = alloca i8, align 1
  %14 = getelementptr inbounds nuw { i64, i64 }, ptr %5, i32 0, i32 0
  store i64 %1, ptr %14, align 1
  %15 = getelementptr inbounds nuw { i64, i64 }, ptr %5, i32 0, i32 1
  store i64 %2, ptr %15, align 1
  store i64 %0, ptr %6, align 8, !tbaa !12
  store ptr %3, ptr %7, align 8, !tbaa !21
  call void @llvm.lifetime.start.p0(i64 4, ptr %8) #5
  store i32 -1, ptr %8, align 4, !tbaa !3
  call void @llvm.lifetime.start.p0(i64 8, ptr %9) #5
  store ptr null, ptr %9, align 8, !tbaa !16
  call void @llvm.lifetime.start.p0(i64 4, ptr %10) #5
  store i32 0, ptr %10, align 4, !tbaa !3
  call void @llvm.lifetime.start.p0(i64 480, ptr %11) #5
  call void @llvm.memset.p0.i64(ptr align 8 %11, i8 0, i64 480, i1 false)
  call void @llvm.lifetime.start.p0(i64 1, ptr %12) #5
  store i8 0, ptr %12, align 1, !tbaa !7
  call void @llvm.lifetime.start.p0(i64 1, ptr %13) #5
  store i8 0, ptr %13, align 1, !tbaa !7
  br label %16

16:                                               ; preds = %4
  %17 = load i8, ptr @H5_libinit_g, align 1, !tbaa !7, !range !14, !noundef !15
  %18 = trunc i8 %17 to i1
  br i1 %18, label %23, label %19

19:                                               ; preds = %16
  %20 = load i8, ptr @H5_libterm_g, align 1, !tbaa !7, !range !14, !noundef !15
  %21 = trunc i8 %20 to i1
  %22 = xor i1 %21, true
  br label %23

23:                                               ; preds = %19, %16
  %24 = phi i1 [ false, %16 ], [ %22, %19 ]
  %25 = xor i1 %24, true
  %26 = xor i1 %25, true
  %27 = zext i1 %26 to i32
  %28 = sext i32 %27 to i64
  %29 = call i64 @llvm.expect.i64(i64 %28, i64 0)
  %30 = icmp ne i64 %29, 0
  br i1 %30, label %31, label %60

31:                                               ; preds = %23
  %32 = call i32 @H5_init_library()
  %33 = icmp slt i32 %32, 0
  %34 = xor i1 %33, true
  %35 = xor i1 %34, true
  %36 = zext i1 %35 to i32
  %37 = sext i32 %36 to i64
  %38 = call i64 @llvm.expect.i64(i64 %37, i64 0)
  %39 = icmp ne i64 %38, 0
  br i1 %39, label %40, label %59

40:                                               ; preds = %31
  br label %41

41:                                               ; preds = %40
  br label %42

42:                                               ; preds = %41
  br label %43

43:                                               ; preds = %42
  %44 = load i64, ptr @H5E_FUNC_g, align 8, !tbaa !12
  %45 = load i64, ptr @H5E_CANTINIT_g, align 8, !tbaa !12
  %46 = call i32 (ptr, ptr, i32, i64, i64, ptr, ...) @H5E_printf_stack(ptr noundef @.str, ptr noundef @__func__.H5VLnative_token_to_addr, i32 noundef 473, i64 noundef %44, i64 noundef %45, ptr noundef @.str.6)
  br label %47

47:                                               ; preds = %43
  br label %48

48:                                               ; preds = %47
  store i8 1, ptr %13, align 1, !tbaa !7
  %49 = load i8, ptr %13, align 1, !tbaa !7, !range !14, !noundef !15
  %50 = trunc i8 %49 to i1
  %51 = zext i1 %50 to i8
  store i8 %51, ptr %13, align 1, !tbaa !7
  br label %52

52:                                               ; preds = %48
  br label %53

53:                                               ; preds = %52
  br label %54

54:                                               ; preds = %53
  store i32 -1, ptr %10, align 4, !tbaa !3
  br label %193

55:                                               ; No predecessors!
  br label %56

56:                                               ; preds = %55
  br label %57

57:                                               ; preds = %56
  br label %58

58:                                               ; preds = %57
  br label %59

59:                                               ; preds = %58, %31
  br label %60

60:                                               ; preds = %59, %23
  br label %61

61:                                               ; preds = %60
  br label %62

62:                                               ; preds = %61
  br label %63

63:                                               ; preds = %62
  %64 = call i32 @H5CX_push(ptr noundef %11)
  %65 = icmp slt i32 %64, 0
  %66 = xor i1 %65, true
  %67 = xor i1 %66, true
  %68 = zext i1 %67 to i32
  %69 = sext i32 %68 to i64
  %70 = call i64 @llvm.expect.i64(i64 %69, i64 0)
  %71 = icmp ne i64 %70, 0
  br i1 %71, label %72, label %91

72:                                               ; preds = %63
  br label %73

73:                                               ; preds = %72
  br label %74

74:                                               ; preds = %73
  br label %75

75:                                               ; preds = %74
  %76 = load i64, ptr @H5E_FUNC_g, align 8, !tbaa !12
  %77 = load i64, ptr @H5E_CANTSET_g, align 8, !tbaa !12
  %78 = call i32 (ptr, ptr, i32, i64, i64, ptr, ...) @H5E_printf_stack(ptr noundef @.str, ptr noundef @__func__.H5VLnative_token_to_addr, i32 noundef 473, i64 noundef %76, i64 noundef %77, ptr noundef @.str.7)
  br label %79

79:                                               ; preds = %75
  br label %80

80:                                               ; preds = %79
  store i8 1, ptr %13, align 1, !tbaa !7
  %81 = load i8, ptr %13, align 1, !tbaa !7, !range !14, !noundef !15
  %82 = trunc i8 %81 to i1
  %83 = zext i1 %82 to i8
  store i8 %83, ptr %13, align 1, !tbaa !7
  br label %84

84:                                               ; preds = %80
  br label %85

85:                                               ; preds = %84
  br label %86

86:                                               ; preds = %85
  store i32 -1, ptr %10, align 4, !tbaa !3
  br label %193

87:                                               ; No predecessors!
  br label %88

88:                                               ; preds = %87
  br label %89

89:                                               ; preds = %88
  br label %90

90:                                               ; preds = %89
  br label %92

91:                                               ; preds = %63
  store i8 1, ptr %12, align 1, !tbaa !7
  br label %92

92:                                               ; preds = %91, %90
  br label %93

93:                                               ; preds = %92
  br label %94

94:                                               ; preds = %93
  %95 = call i32 @H5E_clear_stack()
  %96 = load ptr, ptr %7, align 8, !tbaa !21
  %97 = icmp eq ptr null, %96
  br i1 %97, label %98, label %117

98:                                               ; preds = %94
  br label %99

99:                                               ; preds = %98
  br label %100

100:                                              ; preds = %99
  br label %101

101:                                              ; preds = %100
  %102 = load i64, ptr @H5E_ARGS_g, align 8, !tbaa !12
  %103 = load i64, ptr @H5E_BADVALUE_g, align 8, !tbaa !12
  %104 = call i32 (ptr, ptr, i32, i64, i64, ptr, ...) @H5E_printf_stack(ptr noundef @.str, ptr noundef @__func__.H5VLnative_token_to_addr, i32 noundef 477, i64 noundef %102, i64 noundef %103, ptr noundef @.str.12)
  br label %105

105:                                              ; preds = %101
  br label %106

106:                                              ; preds = %105
  store i8 1, ptr %13, align 1, !tbaa !7
  %107 = load i8, ptr %13, align 1, !tbaa !7, !range !14, !noundef !15
  %108 = trunc i8 %107 to i1
  %109 = zext i1 %108 to i8
  store i8 %109, ptr %13, align 1, !tbaa !7
  br label %110

110:                                              ; preds = %106
  br label %111

111:                                              ; preds = %110
  br label %112

112:                                              ; preds = %111
  store i32 -1, ptr %10, align 4, !tbaa !3
  br label %193

113:                                              ; No predecessors!
  br label %114

114:                                              ; preds = %113
  br label %115

115:                                              ; preds = %114
  br label %116

116:                                              ; preds = %115
  br label %117

117:                                              ; preds = %116, %94
  %118 = load i64, ptr %6, align 8, !tbaa !12
  %119 = call i32 @H5I_get_type(i64 noundef %118)
  store i32 %119, ptr %8, align 4, !tbaa !3
  %120 = icmp slt i32 %119, 0
  br i1 %120, label %121, label %140

121:                                              ; preds = %117
  br label %122

122:                                              ; preds = %121
  br label %123

123:                                              ; preds = %122
  br label %124

124:                                              ; preds = %123
  %125 = load i64, ptr @H5E_VOL_g, align 8, !tbaa !12
  %126 = load i64, ptr @H5E_BADTYPE_g, align 8, !tbaa !12
  %127 = call i32 (ptr, ptr, i32, i64, i64, ptr, ...) @H5E_printf_stack(ptr noundef @.str, ptr noundef @__func__.H5VLnative_token_to_addr, i32 noundef 481, i64 noundef %125, i64 noundef %126, ptr noundef @.str.3)
  br label %128

128:                                              ; preds = %124
  br label %129

129:                                              ; preds = %128
  store i8 1, ptr %13, align 1, !tbaa !7
  %130 = load i8, ptr %13, align 1, !tbaa !7, !range !14, !noundef !15
  %131 = trunc i8 %130 to i1
  %132 = zext i1 %131 to i8
  store i8 %132, ptr %13, align 1, !tbaa !7
  br label %133

133:                                              ; preds = %129
  br label %134

134:                                              ; preds = %133
  br label %135

135:                                              ; preds = %134
  store i32 -1, ptr %10, align 4, !tbaa !3
  br label %193

136:                                              ; No predecessors!
  br label %137

137:                                              ; preds = %136
  br label %138

138:                                              ; preds = %137
  br label %139

139:                                              ; preds = %138
  br label %140

140:                                              ; preds = %139, %117
  %141 = load i64, ptr %6, align 8, !tbaa !12
  %142 = call ptr @H5VL_object(i64 noundef %141)
  store ptr %142, ptr %9, align 8, !tbaa !16
  %143 = icmp eq ptr null, %142
  br i1 %143, label %144, label %163

144:                                              ; preds = %140
  br label %145

145:                                              ; preds = %144
  br label %146

146:                                              ; preds = %145
  br label %147

147:                                              ; preds = %146
  %148 = load i64, ptr @H5E_VOL_g, align 8, !tbaa !12
  %149 = load i64, ptr @H5E_CANTGET_g, align 8, !tbaa !12
  %150 = call i32 (ptr, ptr, i32, i64, i64, ptr, ...) @H5E_printf_stack(ptr noundef @.str, ptr noundef @__func__.H5VLnative_token_to_addr, i32 noundef 485, i64 noundef %148, i64 noundef %149, ptr noundef @.str.9)
  br label %151

151:                                              ; preds = %147
  br label %152

152:                                              ; preds = %151
  store i8 1, ptr %13, align 1, !tbaa !7
  %153 = load i8, ptr %13, align 1, !tbaa !7, !range !14, !noundef !15
  %154 = trunc i8 %153 to i1
  %155 = zext i1 %154 to i8
  store i8 %155, ptr %13, align 1, !tbaa !7
  br label %156

156:                                              ; preds = %152
  br label %157

157:                                              ; preds = %156
  br label %158

158:                                              ; preds = %157
  store i32 -1, ptr %10, align 4, !tbaa !3
  br label %193

159:                                              ; No predecessors!
  br label %160

160:                                              ; preds = %159
  br label %161

161:                                              ; preds = %160
  br label %162

162:                                              ; preds = %161
  br label %163

163:                                              ; preds = %162, %140
  %164 = load ptr, ptr %9, align 8, !tbaa !16
  %165 = load i32, ptr %8, align 4, !tbaa !3
  %166 = load ptr, ptr %7, align 8, !tbaa !21
  %167 = getelementptr inbounds nuw { i64, i64 }, ptr %5, i32 0, i32 0
  %168 = load i64, ptr %167, align 1
  %169 = getelementptr inbounds nuw { i64, i64 }, ptr %5, i32 0, i32 1
  %170 = load i64, ptr %169, align 1
  %171 = call i32 @H5VL_native_token_to_addr(ptr noundef %164, i32 noundef %165, i64 %168, i64 %170, ptr noundef %166)
  %172 = icmp slt i32 %171, 0
  br i1 %172, label %173, label %192

173:                                              ; preds = %163
  br label %174

174:                                              ; preds = %173
  br label %175

175:                                              ; preds = %174
  br label %176

176:                                              ; preds = %175
  %177 = load i64, ptr @H5E_VOL_g, align 8, !tbaa !12
  %178 = load i64, ptr @H5E_CANTUNSERIALIZE_g, align 8, !tbaa !12
  %179 = call i32 (ptr, ptr, i32, i64, i64, ptr, ...) @H5E_printf_stack(ptr noundef @.str, ptr noundef @__func__.H5VLnative_token_to_addr, i32 noundef 507, i64 noundef %177, i64 noundef %178, ptr noundef @.str.13)
  br label %180

180:                                              ; preds = %176
  br label %181

181:                                              ; preds = %180
  store i8 1, ptr %13, align 1, !tbaa !7
  %182 = load i8, ptr %13, align 1, !tbaa !7, !range !14, !noundef !15
  %183 = trunc i8 %182 to i1
  %184 = zext i1 %183 to i8
  store i8 %184, ptr %13, align 1, !tbaa !7
  br label %185

185:                                              ; preds = %181
  br label %186

186:                                              ; preds = %185
  br label %187

187:                                              ; preds = %186
  store i32 -1, ptr %10, align 4, !tbaa !3
  br label %193

188:                                              ; No predecessors!
  br label %189

189:                                              ; preds = %188
  br label %190

190:                                              ; preds = %189
  br label %191

191:                                              ; preds = %190
  br label %192

192:                                              ; preds = %191, %163
  br label %193

193:                                              ; preds = %192, %187, %158, %135, %112, %86, %54
  %194 = load i8, ptr %12, align 1, !tbaa !7, !range !14, !noundef !15
  %195 = trunc i8 %194 to i1
  %196 = xor i1 %195, true
  %197 = xor i1 %196, true
  %198 = zext i1 %197 to i32
  %199 = sext i32 %198 to i64
  %200 = call i64 @llvm.expect.i64(i64 %199, i64 1)
  %201 = icmp ne i64 %200, 0
  br i1 %201, label %202, label %204

202:                                              ; preds = %193
  %203 = call i32 @H5CX_pop(i1 noundef zeroext true)
  store i8 0, ptr %12, align 1, !tbaa !7
  br label %204

204:                                              ; preds = %202, %193
  %205 = load i8, ptr %13, align 1, !tbaa !7, !range !14, !noundef !15
  %206 = trunc i8 %205 to i1
  %207 = xor i1 %206, true
  %208 = xor i1 %207, true
  %209 = zext i1 %208 to i32
  %210 = sext i32 %209 to i64
  %211 = call i64 @llvm.expect.i64(i64 %210, i64 0)
  %212 = icmp ne i64 %211, 0
  br i1 %212, label %213, label %215

213:                                              ; preds = %204
  %214 = call i32 @H5E_dump_api_stack()
  br label %215

215:                                              ; preds = %213, %204
  %216 = load i32, ptr %10, align 4, !tbaa !3
  call void @llvm.lifetime.end.p0(i64 1, ptr %13) #5
  call void @llvm.lifetime.end.p0(i64 1, ptr %12) #5
  call void @llvm.lifetime.end.p0(i64 480, ptr %11) #5
  call void @llvm.lifetime.end.p0(i64 4, ptr %10) #5
  call void @llvm.lifetime.end.p0(i64 8, ptr %9) #5
  call void @llvm.lifetime.end.p0(i64 4, ptr %8) #5
  ret i32 %216
}