; Function Attrs: nounwind uwtable
define range(i32 -1, 1) i32 @H5VLnative_token_to_addr(i64 noundef %0, i64 %1, i64 %2, ptr noundef %3) local_unnamed_addr #0 {
  %5 = alloca %struct.H5CX_node_t, align 8
  call void @llvm.lifetime.start.p0(i64 480, ptr nonnull %5) #6
  call void @llvm.memset.p0.i64(ptr noundef nonnull align 8 dereferenceable(480) %5, i8 0, i64 480, i1 false)
  %6 = load i8, ptr @H5_libinit_g, align 1, !tbaa !17, !range !18, !noundef !19
  %7 = trunc nuw i8 %6 to i1
  %8 = load i8, ptr @H5_libterm_g, align 1, !range !18
  %9 = trunc nuw i8 %8 to i1
  %10 = select i1 %7, i1 true, i1 %9
  br i1 %10, label %18, label %11, !prof !20

11:                                               ; preds = %4
  %12 = tail call i32 @H5_init_library() #6
  %13 = icmp slt i32 %12, 0
  br i1 %13, label %14, label %18, !prof !21

14:                                               ; preds = %11
  %15 = load i64, ptr @H5E_FUNC_g, align 8, !tbaa !8
  %16 = load i64, ptr @H5E_CANTINIT_g, align 8, !tbaa !8
  %17 = tail call i32 (ptr, ptr, i32, i64, i64, ptr, ...) @H5E_printf_stack(ptr noundef nonnull @.str, ptr noundef nonnull @__func__.H5VLnative_token_to_addr, i32 noundef 473, i64 noundef %15, i64 noundef %16, ptr noundef nonnull @.str.6) #6
  br label %.thread27

18:                                               ; preds = %4, %11
  %19 = call i32 @H5CX_push(ptr noundef nonnull %5) #6
  %20 = icmp slt i32 %19, 0
  br i1 %20, label %21, label %25, !prof !21

21:                                               ; preds = %18
  %22 = load i64, ptr @H5E_FUNC_g, align 8, !tbaa !8
  %23 = load i64, ptr @H5E_CANTSET_g, align 8, !tbaa !8
  %24 = call i32 (ptr, ptr, i32, i64, i64, ptr, ...) @H5E_printf_stack(ptr noundef nonnull @.str, ptr noundef nonnull @__func__.H5VLnative_token_to_addr, i32 noundef 473, i64 noundef %22, i64 noundef %23, ptr noundef nonnull @.str.7) #6
  br label %.thread27

25:                                               ; preds = %18
  %26 = call i32 @H5E_clear_stack() #6
  %27 = icmp eq ptr %3, null
  br i1 %27, label %28, label %32, !prof !22

28:                                               ; preds = %25
  %29 = load i64, ptr @H5E_ARGS_g, align 8, !tbaa !8
  %30 = load i64, ptr @H5E_BADVALUE_g, align 8, !tbaa !8
  %31 = call i32 (ptr, ptr, i32, i64, i64, ptr, ...) @H5E_printf_stack(ptr noundef nonnull @.str, ptr noundef nonnull @__func__.H5VLnative_token_to_addr, i32 noundef 477, i64 noundef %29, i64 noundef %30, ptr noundef nonnull @.str.12) #6
  br label %.thread33

32:                                               ; preds = %25
  %33 = call i32 @H5I_get_type(i64 noundef %0) #6
  %34 = icmp slt i32 %33, 0
  br i1 %34, label %35, label %39, !prof !22

35:                                               ; preds = %32
  %36 = load i64, ptr @H5E_VOL_g, align 8, !tbaa !8
  %37 = load i64, ptr @H5E_BADTYPE_g, align 8, !tbaa !8
  %38 = call i32 (ptr, ptr, i32, i64, i64, ptr, ...) @H5E_printf_stack(ptr noundef nonnull @.str, ptr noundef nonnull @__func__.H5VLnative_token_to_addr, i32 noundef 481, i64 noundef %36, i64 noundef %37, ptr noundef nonnull @.str.3) #6
  br label %.thread33

39:                                               ; preds = %32
  %40 = call ptr @H5VL_object(i64 noundef %0) #6
  %41 = icmp eq ptr %40, null
  br i1 %41, label %42, label %46, !prof !22

42:                                               ; preds = %39
  %43 = load i64, ptr @H5E_VOL_g, align 8, !tbaa !8
  %44 = load i64, ptr @H5E_CANTGET_g, align 8, !tbaa !8
  %45 = call i32 (ptr, ptr, i32, i64, i64, ptr, ...) @H5E_printf_stack(ptr noundef nonnull @.str, ptr noundef nonnull @__func__.H5VLnative_token_to_addr, i32 noundef 485, i64 noundef %43, i64 noundef %44, ptr noundef nonnull @.str.9) #6
  br label %.thread33

46:                                               ; preds = %39
  %47 = call i32 @H5VL_native_token_to_addr(ptr noundef nonnull %40, i32 noundef %33, i64 %1, i64 %2, ptr noundef nonnull %3)
  %48 = icmp slt i32 %47, 0
  br i1 %48, label %49, label %54, !prof !22

49:                                               ; preds = %46
  %50 = load i64, ptr @H5E_VOL_g, align 8, !tbaa !8
  %51 = load i64, ptr @H5E_CANTUNSERIALIZE_g, align 8, !tbaa !8
  %52 = call i32 (ptr, ptr, i32, i64, i64, ptr, ...) @H5E_printf_stack(ptr noundef nonnull @.str, ptr noundef nonnull @__func__.H5VLnative_token_to_addr, i32 noundef 507, i64 noundef %50, i64 noundef %51, ptr noundef nonnull @.str.13) #6
  br label %.thread33

.thread33:                                        ; preds = %49, %42, %35, %28
  %53 = call i32 @H5CX_pop(i1 noundef zeroext true) #6
  br label %.thread27

54:                                               ; preds = %46
  %55 = call i32 @H5CX_pop(i1 noundef zeroext true) #6
  br label %57

.thread27:                                        ; preds = %21, %14, %.thread33
  %56 = call i32 @H5E_dump_api_stack() #6
  br label %57

57:                                               ; preds = %54, %.thread27
  %.0152230 = phi i32 [ -1, %.thread27 ], [ 0, %54 ]
  call void @llvm.lifetime.end.p0(i64 480, ptr nonnull %5) #6
  ret i32 %.0152230
}